(lp0
ccopy_reg
_reconstructor
p1
(cargparse
Namespace
p2
c__builtin__
object
p3
Ntp4
Rp5
(dp6
S'n_meta_train_classes'
p7
I500
sS'log_var_init'
p8
(dp9
S'std'
p10
F0.1
sS'mean'
p11
I-10
ssS'K_Shot_MetaTrain'
p12
I100
sS'data_path'
p13
S'/home/tzahi/Thesis/ExtendCurriculumLearning/ML_data_sets'
p14
sS'seed'
p15
I1
sS'run_name'
p16
S'ShuffledPixels100_TasksN/1'
p17
sS'lr_schedule'
p18
(dp19
sS'complexity_type'
p20
S'NewBoundSeeger'
p21
sS'K_Shot_MetaTest'
p22
I100
sS'load_model_path'
p23
S'saved/ShuffledPixels100_TasksN/1/model.pt'
p24
sS'n_meta_train_epochs'
p25
I150
sS'n_pixels_shuffles'
p26
I100
sS'test_batch_size'
p27
I128
sS'optim_func'
p28
ctorch.optim.adam
Adam
p29
sS'lr'
p30
F0.001
sS'result_dir'
p31
S'saved/ShuffledPixels100_TasksN/1'
p32
sS'test_type'
p33
S'MaxPosterior'
p34
sS'loss_type'
p35
S'CrossEntropy'
p36
sS'n_test_tasks'
p37
I20
sS'meta_batch_size'
p38
I16
sS'batch_size'
p39
I128
sS'n_meta_test_epochs'
p40
I200
sS'n_MC'
p41
I1
sS'N_Way'
p42
I5
sS'n_inner_steps'
p43
I50
sS'data_source'
p44
S'MNIST'
p45
sS'chars_split_type'
p46
S'random'
p47
sS'optim_args'
p48
(dp49
g30
F0.001
ssS'n_meta_train_chars'
p50
I1200
sS'kappa_post'
p51
F0.001
sS'delta'
p52
F0.1
sS'n_train_tasks'
p53
I1
sS'mode'
p54
S'MetaTrain'
p55
sS'data_transform'
p56
S'Shuffled_Pixels'
p57
sS'limit_train_samples_in_test_tasks'
p58
I2000
sS'kappa_prior'
p59
F2000.0
sS'model_name'
p60
S'FcNet3'
p61
sba(dp62
S'test_err_vec'
p63
cnumpy.core.multiarray
_reconstruct
p64
(cnumpy
ndarray
p65
(I0
tp66
S'b'
p67
tp68
Rp69
(I1
(I20
tp70
cnumpy
dtype
p71
(S'f8'
p72
I0
I1
tp73
Rp74
(I3
S'<'
p75
NNNI-1
I-1
I0
tp76
bI00
S'`m\xc5\xfe\xb2{\xa2?\x90\xd4\th"l\xa8?p\x8a\x8e\xe4\xf2\x1f\xa2?\xa0\x89\xb0\xe1\xe9\x95\xa2?\x10\x8cJ\xea\x044\xa1?\x00o\x81\x04\xc5\x8f\xa1?\xe0\xa5\x9b\xc4 \xb0\xa2? \xfd\xf6u\xe0\x9c\xa1?\xf0\x16HP\xfc\x18\xa3?\xa0\x89\xb0\xe1\xe9\x95\xa2?`\xf7\xe4a\xa1\xd6\xa4?P\xfc\x18s\xd7\x12\xa2?\x004\x116<\xbd\xa2?@\xa4\xdf\xbe\x0e\x9c\xa3?\x90St$\x97\xff\xa0?`9\xb4\xc8v\xbe\x9f?\x80\xd9=yX\xa8\xa5?PP\xfc\x18s\xd7\xa2?ph\x91\xed|?\xa5?\xe0\xf9~j\xbct\xa3?'
p77
tp78
bsa.